target datalayout = "e-m:e-p270:32:32-p271:32:32-p272:64:64-i64:64-i128:128-f80:128-n8:16:32:64-S128"
target triple = "x86_64-pc-linux-gnu"

%struct.darktable_t = type { %struct.dt_codepath_t, i32, i32, ptr, ptr, ptr, ptr, ptr, ptr, ptr, ptr, ptr, ptr, ptr, ptr, ptr, ptr, ptr, ptr, ptr, ptr, ptr, ptr, ptr, ptr, ptr, ptr, ptr, ptr, ptr, [64 x %struct.dt_pthread_mutex_t], %struct.dt_pthread_mutex_t, %struct.dt_pthread_mutex_t, %struct.dt_pthread_mutex_t, %struct.dt_pthread_mutex_t, %struct.dt_pthread_mutex_t, ptr, ptr, ptr, ptr, ptr, ptr, ptr, ptr, ptr, ptr, ptr, ptr, ptr, %struct.dt_lua_state_t, ptr, double, ptr, i32, [47 x i32], i32, i32, ptr, ptr, %struct.dt_sys_resources_t, %struct.dt_backthumb_t, %struct.dt_gimp_t }
%struct.dt_codepath_t = type { i8, [3 x i8] }
%struct.dt_pthread_mutex_t = type { %union.pthread_mutex_t }
%union.pthread_mutex_t = type { %struct.__pthread_mutex_s }
%struct.__pthread_mutex_s = type { i32, i32, i32, i32, i32, i16, i16, %struct.__pthread_internal_list }
%struct.__pthread_internal_list = type { ptr, ptr }
%struct.dt_lua_state_t = type { i32 }
%struct.dt_sys_resources_t = type { i64, i64, ptr, ptr, i32 }
%struct.dt_backthumb_t = type { double, double, i32, i32, i32, i32 }
%struct.dt_gimp_t = type { i32, ptr, ptr, i32, i32 }
%struct.dt_camera_t = type { ptr, ptr, %struct.CameraText, ptr, ptr, %struct.dt_pthread_mutex_t, i32, i32, i32, i32, i32, i32, i32, i32, i32, ptr, %struct.dt_pthread_mutex_t, ptr, %struct.anon, ptr, ptr, i32, i32, i32, i32, ptr, i32, i32, i32, i32, i32, i32, i32, i32, i64, %struct.dt_pthread_mutex_t, %struct.dt_pthread_mutex_t }
%struct.CameraText = type { [32768 x i8] }
%struct.anon = type { ptr, i32 }
%struct._GList = type { ptr, ptr, ptr }

@darktable = external global %struct.darktable_t, align 8
@.str.48 = private unnamed_addr constant [39 x i8] c"[camera_control] destroy %s on port %s\00", align 1

; Function Attrs: nounwind uwtable
define internal void @dt_camctl_camera_destroy(ptr noundef %0) #0 {
  %2 = alloca ptr, align 8
  %3 = alloca ptr, align 8
  store ptr %0, ptr %2, align 8, !tbaa !21
  %4 = load ptr, ptr %2, align 8, !tbaa !21
  %5 = icmp ne ptr %4, null
  br i1 %5, label %7, label %6

6:                                                ; preds = %1
  br label %59

7:                                                ; preds = %1
  br label %8

8:                                                ; preds = %7
  %9 = load i32, ptr getelementptr inbounds nuw (%struct.darktable_t, ptr @darktable, i32 0, i32 2), align 8, !tbaa !22
  %10 = and i32 32, %9
  %11 = icmp ne i32 %10, 0
  br i1 %11, label %12, label %24

12:                                               ; preds = %8
  %13 = load i32, ptr getelementptr inbounds nuw (%struct.darktable_t, ptr @darktable, i32 0, i32 2), align 8, !tbaa !22
  %14 = xor i32 %13, -1
  %15 = and i32 0, %14
  %16 = icmp ne i32 %15, 0
  br i1 %16, label %24, label %17

17:                                               ; preds = %12
  %18 = load ptr, ptr %2, align 8, !tbaa !21
  %19 = getelementptr inbounds nuw %struct.dt_camera_t, ptr %18, i32 0, i32 0
  %20 = load ptr, ptr %19, align 8, !tbaa !88
  %21 = load ptr, ptr %2, align 8, !tbaa !21
  %22 = getelementptr inbounds nuw %struct.dt_camera_t, ptr %21, i32 0, i32 1
  %23 = load ptr, ptr %22, align 8, !tbaa !89
  call void (ptr, ...) @dt_print_ext(ptr noundef @.str.48, ptr noundef %20, ptr noundef %23)
  br label %24

24:                                               ; preds = %17, %12, %8
  br label %25

25:                                               ; preds = %24
  call void @llvm.lifetime.start.p0(i64 8, ptr %3) #10
  %26 = load ptr, ptr %2, align 8, !tbaa !21
  %27 = getelementptr inbounds nuw %struct.dt_camera_t, ptr %26, i32 0, i32 15
  %28 = load ptr, ptr %27, align 8, !tbaa !95
  store ptr %28, ptr %3, align 8, !tbaa !85
  br label %29

29:                                               ; preds = %38, %25
  %30 = load ptr, ptr %3, align 8, !tbaa !85
  %31 = icmp ne ptr %30, null
  br i1 %31, label %33, label %32

32:                                               ; preds = %29
  call void @llvm.lifetime.end.p0(i64 8, ptr %3) #10
  br label %42

33:                                               ; preds = %29
  %34 = load ptr, ptr %3, align 8, !tbaa !85
  %35 = getelementptr inbounds nuw %struct._GList, ptr %34, i32 0, i32 0
  %36 = load ptr, ptr %35, align 8, !tbaa !86
  %37 = call i32 @gp_file_free(ptr noundef %36)
  br label %38

38:                                               ; preds = %33
  %39 = load ptr, ptr %3, align 8, !tbaa !85
  %40 = load ptr, ptr %3, align 8, !tbaa !85
  %41 = call ptr @g_list_delete_link(ptr noundef %39, ptr noundef %40)
  store ptr %41, ptr %3, align 8, !tbaa !85
  br label %29

42:                                               ; preds = %32
  %43 = load ptr, ptr %2, align 8, !tbaa !21
  %44 = getelementptr inbounds nuw %struct.dt_camera_t, ptr %43, i32 0, i32 19
  %45 = load ptr, ptr %44, align 8, !tbaa !96
  %46 = load ptr, ptr %2, align 8, !tbaa !21
  %47 = getelementptr inbounds nuw %struct.dt_camera_t, ptr %46, i32 0, i32 20
  %48 = load ptr, ptr %47, align 8, !tbaa !97
  %49 = call i32 @gp_camera_exit(ptr noundef %45, ptr noundef %48)
  %50 = load ptr, ptr %2, align 8, !tbaa !21
  %51 = getelementptr inbounds nuw %struct.dt_camera_t, ptr %50, i32 0, i32 19
  %52 = load ptr, ptr %51, align 8, !tbaa !96
  %53 = call i32 @gp_camera_unref(ptr noundef %52)
  %54 = load ptr, ptr %2, align 8, !tbaa !21
  %55 = getelementptr inbounds nuw %struct.dt_camera_t, ptr %54, i32 0, i32 3
  %56 = load ptr, ptr %55, align 8, !tbaa !98
  %57 = call i32 @gp_widget_unref(ptr noundef %56)
  %58 = load ptr, ptr %2, align 8, !tbaa !21
  call void @dt_camctl_camera_destroy_struct(ptr noundef %58)
  br label %59

59:                                               ; preds = %42, %6
  ret void
}