; Function Attrs: nounwind uwtable
define internal fastcc void @dt_camctl_camera_destroy(ptr noundef %0) unnamed_addr #0 {
  %.not = icmp eq ptr %0, null
  br i1 %.not, label %25, label %2

2:                                                ; preds = %1
  %3 = load i32, ptr getelementptr inbounds nuw (i8, ptr @darktable, i64 8), align 8, !tbaa !19
  %4 = and i32 %3, 32
  %.not14 = icmp eq i32 %4, 0
  br i1 %.not14, label %9, label %5

5:                                                ; preds = %2
  %6 = load ptr, ptr %0, align 8, !tbaa !80
  %7 = getelementptr inbounds nuw i8, ptr %0, i64 8
  %8 = load ptr, ptr %7, align 8, !tbaa !81
  tail call void (ptr, ...) @dt_print_ext(ptr noundef nonnull @.str.48, ptr noundef %6, ptr noundef %8) #15
  br label %9

9:                                                ; preds = %2, %5
  %10 = getelementptr inbounds nuw i8, ptr %0, i64 32880
  %11 = load ptr, ptr %10, align 8, !tbaa !93
  %.not1516 = icmp eq ptr %11, null
  br i1 %.not1516, label %._crit_edge, label %.lr.ph

._crit_edge:                                      ; preds = %.lr.ph, %9
  %12 = getelementptr inbounds nuw i8, ptr %0, i64 32952
  %13 = load ptr, ptr %12, align 8, !tbaa !94
  %14 = getelementptr inbounds nuw i8, ptr %0, i64 32960
  %15 = load ptr, ptr %14, align 8, !tbaa !95
  %16 = tail call i32 @gp_camera_exit(ptr noundef %13, ptr noundef %15) #15
  %17 = load ptr, ptr %12, align 8, !tbaa !94
  %18 = tail call i32 @gp_camera_unref(ptr noundef %17) #15
  %19 = getelementptr inbounds nuw i8, ptr %0, i64 32784
  %20 = load ptr, ptr %19, align 8, !tbaa !96
  %21 = tail call i32 @gp_widget_unref(ptr noundef %20) #15
  tail call fastcc void @dt_camctl_camera_destroy_struct(ptr noundef nonnull %0)
  br label %25

.lr.ph:                                           ; preds = %9, %.lr.ph
  %.017 = phi ptr [ %24, %.lr.ph ], [ %11, %9 ]
  %22 = load ptr, ptr %.017, align 8, !tbaa !78
  %23 = tail call i32 @gp_file_free(ptr noundef %22) #15
  %24 = tail call ptr @g_list_delete_link(ptr noundef nonnull %.017, ptr noundef nonnull %.017) #15
  %.not15 = icmp eq ptr %24, null
  br i1 %.not15, label %._crit_edge, label %.lr.ph

25:                                               ; preds = %1, %._crit_edge
  ret void
}